
NU-HC test.elf:     file format elf32-avr

Sections:
Idx Name          Size      VMA       LMA       File off  Algn
  0 .data         00000000  00800200  00800200  00000412  2**0
                  CONTENTS, ALLOC, LOAD, DATA
  1 .text         0000039e  00000000  00000000  00000074  2**1
                  CONTENTS, ALLOC, LOAD, READONLY, CODE
  2 .bss          00000408  00800200  00800200  00000412  2**0
                  ALLOC
  3 .comment      00000030  00000000  00000000  00000412  2**0
                  CONTENTS, READONLY
  4 .note.gnu.avr.deviceinfo 00000040  00000000  00000000  00000444  2**2
                  CONTENTS, READONLY
  5 .debug_aranges 000000a8  00000000  00000000  00000484  2**0
                  CONTENTS, READONLY, DEBUGGING
  6 .debug_info   00001045  00000000  00000000  0000052c  2**0
                  CONTENTS, READONLY, DEBUGGING
  7 .debug_abbrev 00000c2b  00000000  00000000  00001571  2**0
                  CONTENTS, READONLY, DEBUGGING
  8 .debug_line   000005a9  00000000  00000000  0000219c  2**0
                  CONTENTS, READONLY, DEBUGGING
  9 .debug_frame  000001a0  00000000  00000000  00002748  2**2
                  CONTENTS, READONLY, DEBUGGING
 10 .debug_str    00000638  00000000  00000000  000028e8  2**0
                  CONTENTS, READONLY, DEBUGGING
 11 .debug_loc    000002a1  00000000  00000000  00002f20  2**0
                  CONTENTS, READONLY, DEBUGGING
 12 .debug_ranges 00000088  00000000  00000000  000031c1  2**0
                  CONTENTS, READONLY, DEBUGGING

Disassembly of section .text:

00000000 <__vectors>:
   0:	65 c0       	rjmp	.+202    	; 0xcc <__ctors_end>
   2:	00 00       	nop
   4:	80 c0       	rjmp	.+256    	; 0x106 <__bad_interrupt>
   6:	00 00       	nop
   8:	7e c0       	rjmp	.+252    	; 0x106 <__bad_interrupt>
   a:	00 00       	nop
   c:	7c c0       	rjmp	.+248    	; 0x106 <__bad_interrupt>
   e:	00 00       	nop
  10:	7a c0       	rjmp	.+244    	; 0x106 <__bad_interrupt>
  12:	00 00       	nop
  14:	78 c0       	rjmp	.+240    	; 0x106 <__bad_interrupt>
  16:	00 00       	nop
  18:	76 c0       	rjmp	.+236    	; 0x106 <__bad_interrupt>
  1a:	00 00       	nop
  1c:	74 c0       	rjmp	.+232    	; 0x106 <__bad_interrupt>
  1e:	00 00       	nop
  20:	72 c0       	rjmp	.+228    	; 0x106 <__bad_interrupt>
  22:	00 00       	nop
  24:	70 c0       	rjmp	.+224    	; 0x106 <__bad_interrupt>
  26:	00 00       	nop
  28:	6e c0       	rjmp	.+220    	; 0x106 <__bad_interrupt>
  2a:	00 00       	nop
  2c:	6c c0       	rjmp	.+216    	; 0x106 <__bad_interrupt>
  2e:	00 00       	nop
  30:	6a c0       	rjmp	.+212    	; 0x106 <__bad_interrupt>
  32:	00 00       	nop
  34:	68 c0       	rjmp	.+208    	; 0x106 <__bad_interrupt>
  36:	00 00       	nop
  38:	66 c0       	rjmp	.+204    	; 0x106 <__bad_interrupt>
  3a:	00 00       	nop
  3c:	64 c0       	rjmp	.+200    	; 0x106 <__bad_interrupt>
  3e:	00 00       	nop
  40:	62 c0       	rjmp	.+196    	; 0x106 <__bad_interrupt>
  42:	00 00       	nop
  44:	60 c0       	rjmp	.+192    	; 0x106 <__bad_interrupt>
  46:	00 00       	nop
  48:	5e c0       	rjmp	.+188    	; 0x106 <__bad_interrupt>
  4a:	00 00       	nop
  4c:	5c c0       	rjmp	.+184    	; 0x106 <__bad_interrupt>
  4e:	00 00       	nop
  50:	5a c0       	rjmp	.+180    	; 0x106 <__bad_interrupt>
  52:	00 00       	nop
  54:	58 c0       	rjmp	.+176    	; 0x106 <__bad_interrupt>
  56:	00 00       	nop
  58:	56 c0       	rjmp	.+172    	; 0x106 <__bad_interrupt>
  5a:	00 00       	nop
  5c:	54 c0       	rjmp	.+168    	; 0x106 <__bad_interrupt>
  5e:	00 00       	nop
  60:	52 c0       	rjmp	.+164    	; 0x106 <__bad_interrupt>
  62:	00 00       	nop
  64:	70 c0       	rjmp	.+224    	; 0x146 <__vector_25>
  66:	00 00       	nop
  68:	97 c0       	rjmp	.+302    	; 0x198 <__vector_26>
  6a:	00 00       	nop
  6c:	4c c0       	rjmp	.+152    	; 0x106 <__bad_interrupt>
  6e:	00 00       	nop
  70:	4a c0       	rjmp	.+148    	; 0x106 <__bad_interrupt>
  72:	00 00       	nop
  74:	48 c0       	rjmp	.+144    	; 0x106 <__bad_interrupt>
  76:	00 00       	nop
  78:	46 c0       	rjmp	.+140    	; 0x106 <__bad_interrupt>
  7a:	00 00       	nop
  7c:	44 c0       	rjmp	.+136    	; 0x106 <__bad_interrupt>
  7e:	00 00       	nop
  80:	42 c0       	rjmp	.+132    	; 0x106 <__bad_interrupt>
  82:	00 00       	nop
  84:	40 c0       	rjmp	.+128    	; 0x106 <__bad_interrupt>
  86:	00 00       	nop
  88:	3e c0       	rjmp	.+124    	; 0x106 <__bad_interrupt>
  8a:	00 00       	nop
  8c:	3c c0       	rjmp	.+120    	; 0x106 <__bad_interrupt>
  8e:	00 00       	nop
  90:	b2 c0       	rjmp	.+356    	; 0x1f6 <__vector_36>
  92:	00 00       	nop
  94:	d9 c0       	rjmp	.+434    	; 0x248 <__vector_37>
  96:	00 00       	nop
  98:	36 c0       	rjmp	.+108    	; 0x106 <__bad_interrupt>
  9a:	00 00       	nop
  9c:	34 c0       	rjmp	.+104    	; 0x106 <__bad_interrupt>
  9e:	00 00       	nop
  a0:	32 c0       	rjmp	.+100    	; 0x106 <__bad_interrupt>
  a2:	00 00       	nop
  a4:	30 c0       	rjmp	.+96     	; 0x106 <__bad_interrupt>
  a6:	00 00       	nop
  a8:	2e c0       	rjmp	.+92     	; 0x106 <__bad_interrupt>
  aa:	00 00       	nop
  ac:	2c c0       	rjmp	.+88     	; 0x106 <__bad_interrupt>
  ae:	00 00       	nop
  b0:	2a c0       	rjmp	.+84     	; 0x106 <__bad_interrupt>
  b2:	00 00       	nop
  b4:	28 c0       	rjmp	.+80     	; 0x106 <__bad_interrupt>
  b6:	00 00       	nop
  b8:	26 c0       	rjmp	.+76     	; 0x106 <__bad_interrupt>
  ba:	00 00       	nop
  bc:	24 c0       	rjmp	.+72     	; 0x106 <__bad_interrupt>
  be:	00 00       	nop
  c0:	22 c0       	rjmp	.+68     	; 0x106 <__bad_interrupt>
  c2:	00 00       	nop
  c4:	20 c0       	rjmp	.+64     	; 0x106 <__bad_interrupt>
  c6:	00 00       	nop
  c8:	1e c0       	rjmp	.+60     	; 0x106 <__bad_interrupt>
	...

000000cc <__ctors_end>:
  cc:	11 24       	eor	r1, r1
  ce:	1f be       	out	0x3f, r1	; 63
  d0:	cf ef       	ldi	r28, 0xFF	; 255
  d2:	d1 e2       	ldi	r29, 0x21	; 33
  d4:	de bf       	out	0x3e, r29	; 62
  d6:	cd bf       	out	0x3d, r28	; 61

000000d8 <__do_copy_data>:
  d8:	12 e0       	ldi	r17, 0x02	; 2
  da:	a0 e0       	ldi	r26, 0x00	; 0
  dc:	b2 e0       	ldi	r27, 0x02	; 2
  de:	ee e9       	ldi	r30, 0x9E	; 158
  e0:	f3 e0       	ldi	r31, 0x03	; 3
  e2:	00 e0       	ldi	r16, 0x00	; 0
  e4:	0b bf       	out	0x3b, r16	; 59
  e6:	02 c0       	rjmp	.+4      	; 0xec <__do_copy_data+0x14>
  e8:	07 90       	elpm	r0, Z+
  ea:	0d 92       	st	X+, r0
  ec:	a0 30       	cpi	r26, 0x00	; 0
  ee:	b1 07       	cpc	r27, r17
  f0:	d9 f7       	brne	.-10     	; 0xe8 <__do_copy_data+0x10>

000000f2 <__do_clear_bss>:
  f2:	26 e0       	ldi	r18, 0x06	; 6
  f4:	a0 e0       	ldi	r26, 0x00	; 0
  f6:	b2 e0       	ldi	r27, 0x02	; 2
  f8:	01 c0       	rjmp	.+2      	; 0xfc <.do_clear_bss_start>

000000fa <.do_clear_bss_loop>:
  fa:	1d 92       	st	X+, r1

000000fc <.do_clear_bss_start>:
  fc:	a8 30       	cpi	r26, 0x08	; 8
  fe:	b2 07       	cpc	r27, r18
 100:	e1 f7       	brne	.-8      	; 0xfa <.do_clear_bss_loop>
 102:	02 d0       	rcall	.+4      	; 0x108 <main>
 104:	4a c1       	rjmp	.+660    	; 0x39a <_exit>

00000106 <__bad_interrupt>:
 106:	7c cf       	rjmp	.-264    	; 0x0 <__vectors>

00000108 <main>:
#include <util/delay.h>
#include "uart.h"

int main(void)
{
	DDRC  = 0xFF;
 108:	8f ef       	ldi	r24, 0xFF	; 255
 10a:	87 b9       	out	0x07, r24	; 7
	PORTC = 0x00;
 10c:	18 b8       	out	0x08, r1	; 8

	UART0_init();          // PC ьЛЬыжмьЦ╝
 10e:	cb d0       	rcall	.+406    	; 0x2a6 <UART0_init>
	UART1_init();          // NU-HC
 110:	d6 d0       	rcall	.+428    	; 0x2be <UART1_init>
 112:	78 94       	sei
	sei();                 // ьаДьЧн ьЭ╕эД░ыЯ╜эК╕ enable (RX/TX ISR ыПЩьЮСьЧР эХДьИШ)

	/* ьЛЬьЮС эСЬьЛЬ (UART0 эД░ып╕ыДРьЧРьДЬ эЩХьЭ╕) */
	USART0_Transmit('B');  // Bridge ready
 114:	82 e4       	ldi	r24, 0x42	; 66
 116:	df d0       	rcall	.+446    	; 0x2d6 <USART0_Transmit>
	USART0_Transmit('\r');
 118:	8d e0       	ldi	r24, 0x0D	; 13
	USART0_Transmit('\n');
 11a:	dd d0       	rcall	.+442    	; 0x2d6 <USART0_Transmit>
 11c:	8a e0       	ldi	r24, 0x0A	; 10

	while(1)
	{
		/* UART0(PC) тЖТ UART1(NU-HC) : ы░ЫьЭА ъ▒╕ BLEыбЬ ьЖбьЛа */
		if(USART0_Available()){
 11e:	db d0       	rcall	.+438    	; 0x2d6 <USART0_Transmit>
 120:	28 d1       	rcall	.+592    	; 0x372 <USART0_Available>
 122:	89 2b       	or	r24, r25
 124:	31 f0       	breq	.+12     	; 0x132 <main+0x2a>
			uint8_t c = USART0_Receive();
 126:	01 d1       	rcall	.+514    	; 0x32a <USART0_Receive>
			USART1_Transmit(c);      // NU-HCыбЬ ьаДыЛм тЖТ BLE ьЖбьЛа
 128:	eb d0       	rcall	.+470    	; 0x300 <USART1_Transmit>
			PORTC ^= 0x01;           // ьаДыЛмэХа ыХМызИыЛд LED эЖаъ╕А
 12a:	98 b1       	in	r25, 0x08	; 8
 12c:	81 e0       	ldi	r24, 0x01	; 1
 12e:	89 27       	eor	r24, r25
		}

		/* UART1(NU-HC) тЖТ UART0(PC) : BLEыбЬ ыУдьЦ┤ьШи ъ▒╕ эД░ып╕ыДРьЧР эСЬьЛЬ (ьЦСы░йэЦе эЩХьЭ╕ьЪй) */
		if(USART1_Available()){
 130:	88 b9       	out	0x08, r24	; 8
 132:	29 d1       	rcall	.+594    	; 0x386 <USART1_Available>
 134:	89 2b       	or	r24, r25
 136:	a1 f3       	breq	.-24     	; 0x120 <main+0x18>
			uint8_t c = USART1_Receive();
 138:	0a d1       	rcall	.+532    	; 0x34e <USART1_Receive>
 13a:	cd d0       	rcall	.+410    	; 0x2d6 <USART0_Transmit>
			USART0_Transmit(c);
 13c:	98 b1       	in	r25, 0x08	; 8
 13e:	82 e0       	ldi	r24, 0x02	; 2
			PORTC ^= 0x02;
 140:	89 27       	eor	r24, r25
 142:	88 b9       	out	0x08, r24	; 8
 144:	ed cf       	rjmp	.-38     	; 0x120 <main+0x18>

00000146 <__vector_25>:
 146:	1f 92       	push	r1
 148:	0f 92       	push	r0
/* жбжб printf бц UART ┐м░с жбжб */
static int uart_putchar(char c, FILE *stream)
{
	USART0_Transmit((unsigned char)c);
	return 0;
}
 14a:	0f b6       	in	r0, 0x3f	; 63
 14c:	0f 92       	push	r0
 14e:	11 24       	eor	r1, r1
 150:	0b b6       	in	r0, 0x3b	; 59
 152:	0f 92       	push	r0
 154:	2f 93       	push	r18
 156:	8f 93       	push	r24
 158:	9f 93       	push	r25
 15a:	ef 93       	push	r30
 15c:	ff 93       	push	r31
 15e:	20 91 c6 00 	lds	r18, 0x00C6	; 0x8000c6 <__TEXT_REGION_LENGTH__+0x7e00c6>
 162:	80 91 07 04 	lds	r24, 0x0407	; 0x800407 <rx0_head>
 166:	8f 5f       	subi	r24, 0xFF	; 255
 168:	90 91 06 04 	lds	r25, 0x0406	; 0x800406 <rx0_tail>
 16c:	89 17       	cp	r24, r25
 16e:	41 f0       	breq	.+16     	; 0x180 <__vector_25+0x3a>
 170:	e0 91 07 04 	lds	r30, 0x0407	; 0x800407 <rx0_head>
 174:	f0 e0       	ldi	r31, 0x00	; 0
 176:	e8 5f       	subi	r30, 0xF8	; 248
 178:	fa 4f       	sbci	r31, 0xFA	; 250
 17a:	20 83       	st	Z, r18
 17c:	80 93 07 04 	sts	0x0407, r24	; 0x800407 <rx0_head>
 180:	ff 91       	pop	r31
 182:	ef 91       	pop	r30
 184:	9f 91       	pop	r25
 186:	8f 91       	pop	r24
 188:	2f 91       	pop	r18
 18a:	0f 90       	pop	r0
 18c:	0b be       	out	0x3b, r0	; 59
 18e:	0f 90       	pop	r0
 190:	0f be       	out	0x3f, r0	; 63
 192:	0f 90       	pop	r0
 194:	1f 90       	pop	r1
 196:	18 95       	reti

00000198 <__vector_26>:
 198:	1f 92       	push	r1
 19a:	0f 92       	push	r0
 19c:	0f b6       	in	r0, 0x3f	; 63
 19e:	0f 92       	push	r0
 1a0:	11 24       	eor	r1, r1
 1a2:	0b b6       	in	r0, 0x3b	; 59
 1a4:	0f 92       	push	r0
 1a6:	8f 93       	push	r24
 1a8:	9f 93       	push	r25
 1aa:	ef 93       	push	r30
 1ac:	ff 93       	push	r31
 1ae:	90 91 05 04 	lds	r25, 0x0405	; 0x800405 <tx0_head>
 1b2:	80 91 04 04 	lds	r24, 0x0404	; 0x800404 <tx0_tail>
 1b6:	98 13       	cpse	r25, r24
 1b8:	06 c0       	rjmp	.+12     	; 0x1c6 <__vector_26+0x2e>
 1ba:	e1 ec       	ldi	r30, 0xC1	; 193
 1bc:	f0 e0       	ldi	r31, 0x00	; 0
 1be:	80 81       	ld	r24, Z
 1c0:	8f 7d       	andi	r24, 0xDF	; 223
 1c2:	80 83       	st	Z, r24
 1c4:	0d c0       	rjmp	.+26     	; 0x1e0 <__vector_26+0x48>
 1c6:	e0 91 04 04 	lds	r30, 0x0404	; 0x800404 <tx0_tail>
 1ca:	f0 e0       	ldi	r31, 0x00	; 0
 1cc:	e8 5f       	subi	r30, 0xF8	; 248
 1ce:	fb 4f       	sbci	r31, 0xFB	; 251
 1d0:	80 81       	ld	r24, Z
 1d2:	80 93 c6 00 	sts	0x00C6, r24	; 0x8000c6 <__TEXT_REGION_LENGTH__+0x7e00c6>
 1d6:	80 91 04 04 	lds	r24, 0x0404	; 0x800404 <tx0_tail>
 1da:	8f 5f       	subi	r24, 0xFF	; 255
 1dc:	80 93 04 04 	sts	0x0404, r24	; 0x800404 <tx0_tail>
 1e0:	ff 91       	pop	r31
 1e2:	ef 91       	pop	r30
 1e4:	9f 91       	pop	r25
 1e6:	8f 91       	pop	r24
 1e8:	0f 90       	pop	r0
 1ea:	0b be       	out	0x3b, r0	; 59
 1ec:	0f 90       	pop	r0
 1ee:	0f be       	out	0x3f, r0	; 63
 1f0:	0f 90       	pop	r0
 1f2:	1f 90       	pop	r1
 1f4:	18 95       	reti

000001f6 <__vector_36>:
 1f6:	1f 92       	push	r1
 1f8:	0f 92       	push	r0
 1fa:	0f b6       	in	r0, 0x3f	; 63
 1fc:	0f 92       	push	r0
 1fe:	11 24       	eor	r1, r1
 200:	0b b6       	in	r0, 0x3b	; 59
 202:	0f 92       	push	r0
 204:	2f 93       	push	r18
 206:	8f 93       	push	r24
 208:	9f 93       	push	r25
 20a:	ef 93       	push	r30
 20c:	ff 93       	push	r31
 20e:	20 91 ce 00 	lds	r18, 0x00CE	; 0x8000ce <__TEXT_REGION_LENGTH__+0x7e00ce>
 212:	80 91 03 02 	lds	r24, 0x0203	; 0x800203 <rx1_head>
 216:	8f 5f       	subi	r24, 0xFF	; 255
 218:	90 91 02 02 	lds	r25, 0x0202	; 0x800202 <rx1_tail>
 21c:	89 17       	cp	r24, r25
 21e:	41 f0       	breq	.+16     	; 0x230 <__vector_36+0x3a>
 220:	e0 91 03 02 	lds	r30, 0x0203	; 0x800203 <rx1_head>
 224:	f0 e0       	ldi	r31, 0x00	; 0
 226:	ec 5f       	subi	r30, 0xFC	; 252
 228:	fc 4f       	sbci	r31, 0xFC	; 252
 22a:	20 83       	st	Z, r18
 22c:	80 93 03 02 	sts	0x0203, r24	; 0x800203 <rx1_head>
 230:	ff 91       	pop	r31
 232:	ef 91       	pop	r30
 234:	9f 91       	pop	r25
 236:	8f 91       	pop	r24
 238:	2f 91       	pop	r18
 23a:	0f 90       	pop	r0
 23c:	0b be       	out	0x3b, r0	; 59
 23e:	0f 90       	pop	r0
 240:	0f be       	out	0x3f, r0	; 63
 242:	0f 90       	pop	r0
 244:	1f 90       	pop	r1
 246:	18 95       	reti

00000248 <__vector_37>:
 248:	1f 92       	push	r1
 24a:	0f 92       	push	r0
 24c:	0f b6       	in	r0, 0x3f	; 63
 24e:	0f 92       	push	r0
 250:	11 24       	eor	r1, r1
 252:	0b b6       	in	r0, 0x3b	; 59
 254:	0f 92       	push	r0
 256:	8f 93       	push	r24
 258:	9f 93       	push	r25
 25a:	ef 93       	push	r30
 25c:	ff 93       	push	r31
 25e:	90 91 01 02 	lds	r25, 0x0201	; 0x800201 <tx1_head>
 262:	80 91 00 02 	lds	r24, 0x0200	; 0x800200 <__DATA_REGION_ORIGIN__>
 266:	98 13       	cpse	r25, r24
 268:	06 c0       	rjmp	.+12     	; 0x276 <__vector_37+0x2e>
 26a:	e9 ec       	ldi	r30, 0xC9	; 201
 26c:	f0 e0       	ldi	r31, 0x00	; 0
 26e:	80 81       	ld	r24, Z
 270:	8f 7d       	andi	r24, 0xDF	; 223
 272:	80 83       	st	Z, r24
 274:	0d c0       	rjmp	.+26     	; 0x290 <__vector_37+0x48>
 276:	e0 91 00 02 	lds	r30, 0x0200	; 0x800200 <__DATA_REGION_ORIGIN__>
 27a:	f0 e0       	ldi	r31, 0x00	; 0
 27c:	ec 5f       	subi	r30, 0xFC	; 252
 27e:	fd 4f       	sbci	r31, 0xFD	; 253
 280:	80 81       	ld	r24, Z
 282:	80 93 ce 00 	sts	0x00CE, r24	; 0x8000ce <__TEXT_REGION_LENGTH__+0x7e00ce>
 286:	80 91 00 02 	lds	r24, 0x0200	; 0x800200 <__DATA_REGION_ORIGIN__>
 28a:	8f 5f       	subi	r24, 0xFF	; 255
 28c:	80 93 00 02 	sts	0x0200, r24	; 0x800200 <__DATA_REGION_ORIGIN__>
 290:	ff 91       	pop	r31
 292:	ef 91       	pop	r30
 294:	9f 91       	pop	r25
 296:	8f 91       	pop	r24
 298:	0f 90       	pop	r0
 29a:	0b be       	out	0x3b, r0	; 59
 29c:	0f 90       	pop	r0
 29e:	0f be       	out	0x3f, r0	; 63
 2a0:	0f 90       	pop	r0
 2a2:	1f 90       	pop	r1
 2a4:	18 95       	reti

000002a6 <UART0_init>:
 2a6:	10 92 c5 00 	sts	0x00C5, r1	; 0x8000c5 <__TEXT_REGION_LENGTH__+0x7e00c5>
 2aa:	83 e3       	ldi	r24, 0x33	; 51
 2ac:	80 93 c4 00 	sts	0x00C4, r24	; 0x8000c4 <__TEXT_REGION_LENGTH__+0x7e00c4>
 2b0:	88 e9       	ldi	r24, 0x98	; 152
 2b2:	80 93 c1 00 	sts	0x00C1, r24	; 0x8000c1 <__TEXT_REGION_LENGTH__+0x7e00c1>
 2b6:	86 e0       	ldi	r24, 0x06	; 6
 2b8:	80 93 c2 00 	sts	0x00C2, r24	; 0x8000c2 <__TEXT_REGION_LENGTH__+0x7e00c2>
 2bc:	08 95       	ret

000002be <UART1_init>:
 2be:	10 92 cd 00 	sts	0x00CD, r1	; 0x8000cd <__TEXT_REGION_LENGTH__+0x7e00cd>
 2c2:	83 e3       	ldi	r24, 0x33	; 51
 2c4:	80 93 cc 00 	sts	0x00CC, r24	; 0x8000cc <__TEXT_REGION_LENGTH__+0x7e00cc>
 2c8:	88 e9       	ldi	r24, 0x98	; 152
 2ca:	80 93 c9 00 	sts	0x00C9, r24	; 0x8000c9 <__TEXT_REGION_LENGTH__+0x7e00c9>
 2ce:	86 e0       	ldi	r24, 0x06	; 6
 2d0:	80 93 ca 00 	sts	0x00CA, r24	; 0x8000ca <__TEXT_REGION_LENGTH__+0x7e00ca>
 2d4:	08 95       	ret

000002d6 <USART0_Transmit>:
 2d6:	20 91 05 04 	lds	r18, 0x0405	; 0x800405 <tx0_head>
 2da:	2f 5f       	subi	r18, 0xFF	; 255
 2dc:	90 91 04 04 	lds	r25, 0x0404	; 0x800404 <tx0_tail>
 2e0:	29 17       	cp	r18, r25
 2e2:	e1 f3       	breq	.-8      	; 0x2dc <USART0_Transmit+0x6>
 2e4:	e0 91 05 04 	lds	r30, 0x0405	; 0x800405 <tx0_head>
 2e8:	f0 e0       	ldi	r31, 0x00	; 0
 2ea:	e8 5f       	subi	r30, 0xF8	; 248
 2ec:	fb 4f       	sbci	r31, 0xFB	; 251
 2ee:	80 83       	st	Z, r24
 2f0:	20 93 05 04 	sts	0x0405, r18	; 0x800405 <tx0_head>
 2f4:	e1 ec       	ldi	r30, 0xC1	; 193
 2f6:	f0 e0       	ldi	r31, 0x00	; 0
 2f8:	80 81       	ld	r24, Z
 2fa:	80 62       	ori	r24, 0x20	; 32
 2fc:	80 83       	st	Z, r24
 2fe:	08 95       	ret

00000300 <USART1_Transmit>:
	UCSR0B |= (1 << UDRIE0);        // ╝█╜┼ └╬┼═╖┤╞о ─╤▒т
}

void USART1_Transmit(unsigned char data)
{
	uint8_t next = (tx1_head + 1) & BUF_MASK;
 300:	20 91 01 02 	lds	r18, 0x0201	; 0x800201 <tx1_head>
 304:	2f 5f       	subi	r18, 0xFF	; 255
	while (next == tx1_tail);
 306:	90 91 00 02 	lds	r25, 0x0200	; 0x800200 <__DATA_REGION_ORIGIN__>
 30a:	29 17       	cp	r18, r25
 30c:	e1 f3       	breq	.-8      	; 0x306 <USART1_Transmit+0x6>
	tx1_buf[tx1_head] = data;
 30e:	e0 91 01 02 	lds	r30, 0x0201	; 0x800201 <tx1_head>
 312:	f0 e0       	ldi	r31, 0x00	; 0
 314:	ec 5f       	subi	r30, 0xFC	; 252
 316:	fd 4f       	sbci	r31, 0xFD	; 253
 318:	80 83       	st	Z, r24
	tx1_head = next;
 31a:	20 93 01 02 	sts	0x0201, r18	; 0x800201 <tx1_head>
	UCSR1B |= (1 << UDRIE1);
 31e:	e9 ec       	ldi	r30, 0xC9	; 201
 320:	f0 e0       	ldi	r31, 0x00	; 0
 322:	80 81       	ld	r24, Z
 324:	80 62       	ori	r24, 0x20	; 32
 326:	80 83       	st	Z, r24
 328:	08 95       	ret

0000032a <USART0_Receive>:


/************ ╝І╜┼ *************/
unsigned char USART0_Receive(void)
{
	while (rx0_head == rx0_tail);
 32a:	90 91 07 04 	lds	r25, 0x0407	; 0x800407 <rx0_head>
 32e:	80 91 06 04 	lds	r24, 0x0406	; 0x800406 <rx0_tail>
 332:	98 17       	cp	r25, r24
 334:	d1 f3       	breq	.-12     	; 0x32a <USART0_Receive>
	uint8_t c = rx0_buf[rx0_tail];
 336:	e0 91 06 04 	lds	r30, 0x0406	; 0x800406 <rx0_tail>
 33a:	f0 e0       	ldi	r31, 0x00	; 0
 33c:	e8 5f       	subi	r30, 0xF8	; 248
 33e:	fa 4f       	sbci	r31, 0xFA	; 250
 340:	80 81       	ld	r24, Z
	rx0_tail = (rx0_tail + 1) & BUF_MASK;
 342:	90 91 06 04 	lds	r25, 0x0406	; 0x800406 <rx0_tail>
 346:	9f 5f       	subi	r25, 0xFF	; 255
 348:	90 93 06 04 	sts	0x0406, r25	; 0x800406 <rx0_tail>
	return c;
}
 34c:	08 95       	ret

0000034e <USART1_Receive>:
unsigned char USART1_Receive(void)
{
	while (rx1_head == rx1_tail);
 34e:	90 91 03 02 	lds	r25, 0x0203	; 0x800203 <rx1_head>
 352:	80 91 02 02 	lds	r24, 0x0202	; 0x800202 <rx1_tail>
 356:	98 17       	cp	r25, r24
 358:	d1 f3       	breq	.-12     	; 0x34e <USART1_Receive>
	uint8_t c = rx1_buf[rx1_tail];
 35a:	e0 91 02 02 	lds	r30, 0x0202	; 0x800202 <rx1_tail>
 35e:	f0 e0       	ldi	r31, 0x00	; 0
 360:	ec 5f       	subi	r30, 0xFC	; 252
 362:	fc 4f       	sbci	r31, 0xFC	; 252
 364:	80 81       	ld	r24, Z
	rx1_tail = (rx1_tail + 1) & BUF_MASK;
 366:	90 91 02 02 	lds	r25, 0x0202	; 0x800202 <rx1_tail>
 36a:	9f 5f       	subi	r25, 0xFF	; 255
 36c:	90 93 02 02 	sts	0x0202, r25	; 0x800202 <rx1_tail>
	return c;
}
 370:	08 95       	ret

00000372 <USART0_Available>:


/* ===== ┼е ╗ґ┼┬ ===== */
int USART0_Available(void) {
	return (rx0_head != rx0_tail); 
 372:	20 91 07 04 	lds	r18, 0x0407	; 0x800407 <rx0_head>
 376:	90 91 06 04 	lds	r25, 0x0406	; 0x800406 <rx0_tail>
 37a:	81 e0       	ldi	r24, 0x01	; 1
 37c:	29 13       	cpse	r18, r25
 37e:	01 c0       	rjmp	.+2      	; 0x382 <USART0_Available+0x10>
 380:	80 e0       	ldi	r24, 0x00	; 0
}
 382:	90 e0       	ldi	r25, 0x00	; 0
 384:	08 95       	ret

00000386 <USART1_Available>:
int USART1_Available(void) {
	return (rx1_head != rx1_tail); 
 386:	20 91 03 02 	lds	r18, 0x0203	; 0x800203 <rx1_head>
 38a:	90 91 02 02 	lds	r25, 0x0202	; 0x800202 <rx1_tail>
 38e:	81 e0       	ldi	r24, 0x01	; 1
 390:	29 13       	cpse	r18, r25
 392:	01 c0       	rjmp	.+2      	; 0x396 <USART1_Available+0x10>
 394:	80 e0       	ldi	r24, 0x00	; 0
}
 396:	90 e0       	ldi	r25, 0x00	; 0
 398:	08 95       	ret

0000039a <_exit>:
 39a:	f8 94       	cli

0000039c <__stop_program>:
 39c:	ff cf       	rjmp	.-2      	; 0x39c <__stop_program>
