
7) BLE-UART Bootloader.elf:     file format elf32-avr

Sections:
Idx Name          Size      VMA       LMA       File off  Algn
  0 .data         00000000  00800200  00800200  000006da  2**0
                  CONTENTS, ALLOC, LOAD, DATA
  1 .text         00000666  0001e000  0001e000  00000074  2**1
                  CONTENTS, ALLOC, LOAD, READONLY, CODE
  2 .bss          00000408  00800200  00800200  000006da  2**0
                  ALLOC
  3 .comment      00000030  00000000  00000000  000006da  2**0
                  CONTENTS, READONLY
  4 .note.gnu.avr.deviceinfo 00000040  00000000  00000000  0000070c  2**2
                  CONTENTS, READONLY
  5 .debug_aranges 00000110  00000000  00000000  0000074c  2**0
                  CONTENTS, READONLY, DEBUGGING
  6 .debug_info   000016ba  00000000  00000000  0000085c  2**0
                  CONTENTS, READONLY, DEBUGGING
  7 .debug_abbrev 00000f1d  00000000  00000000  00001f16  2**0
                  CONTENTS, READONLY, DEBUGGING
  8 .debug_line   00000aa8  00000000  00000000  00002e33  2**0
                  CONTENTS, READONLY, DEBUGGING
  9 .debug_frame  000002bc  00000000  00000000  000038dc  2**2
                  CONTENTS, READONLY, DEBUGGING
 10 .debug_str    00000776  00000000  00000000  00003b98  2**0
                  CONTENTS, READONLY, DEBUGGING
 11 .debug_loc    00000793  00000000  00000000  0000430e  2**0
                  CONTENTS, READONLY, DEBUGGING
 12 .debug_ranges 00000100  00000000  00000000  00004aa1  2**0
                  CONTENTS, READONLY, DEBUGGING

Disassembly of section .text:

0001e000 <__vectors>:
   1e000:	65 c0       	rjmp	.+202    	; 0x1e0cc <__ctors_end>
   1e002:	00 00       	nop
   1e004:	80 c0       	rjmp	.+256    	; 0x1e106 <__bad_interrupt>
   1e006:	00 00       	nop
   1e008:	7e c0       	rjmp	.+252    	; 0x1e106 <__bad_interrupt>
   1e00a:	00 00       	nop
   1e00c:	7c c0       	rjmp	.+248    	; 0x1e106 <__bad_interrupt>
   1e00e:	00 00       	nop
   1e010:	7a c0       	rjmp	.+244    	; 0x1e106 <__bad_interrupt>
   1e012:	00 00       	nop
   1e014:	78 c0       	rjmp	.+240    	; 0x1e106 <__bad_interrupt>
   1e016:	00 00       	nop
   1e018:	76 c0       	rjmp	.+236    	; 0x1e106 <__bad_interrupt>
   1e01a:	00 00       	nop
   1e01c:	74 c0       	rjmp	.+232    	; 0x1e106 <__bad_interrupt>
   1e01e:	00 00       	nop
   1e020:	72 c0       	rjmp	.+228    	; 0x1e106 <__bad_interrupt>
   1e022:	00 00       	nop
   1e024:	70 c0       	rjmp	.+224    	; 0x1e106 <__bad_interrupt>
   1e026:	00 00       	nop
   1e028:	6e c0       	rjmp	.+220    	; 0x1e106 <__bad_interrupt>
   1e02a:	00 00       	nop
   1e02c:	6c c0       	rjmp	.+216    	; 0x1e106 <__bad_interrupt>
   1e02e:	00 00       	nop
   1e030:	6a c0       	rjmp	.+212    	; 0x1e106 <__bad_interrupt>
   1e032:	00 00       	nop
   1e034:	68 c0       	rjmp	.+208    	; 0x1e106 <__bad_interrupt>
   1e036:	00 00       	nop
   1e038:	66 c0       	rjmp	.+204    	; 0x1e106 <__bad_interrupt>
   1e03a:	00 00       	nop
   1e03c:	64 c0       	rjmp	.+200    	; 0x1e106 <__bad_interrupt>
   1e03e:	00 00       	nop
   1e040:	62 c0       	rjmp	.+196    	; 0x1e106 <__bad_interrupt>
   1e042:	00 00       	nop
   1e044:	60 c0       	rjmp	.+192    	; 0x1e106 <__bad_interrupt>
   1e046:	00 00       	nop
   1e048:	5e c0       	rjmp	.+188    	; 0x1e106 <__bad_interrupt>
   1e04a:	00 00       	nop
   1e04c:	5c c0       	rjmp	.+184    	; 0x1e106 <__bad_interrupt>
   1e04e:	00 00       	nop
   1e050:	5a c0       	rjmp	.+180    	; 0x1e106 <__bad_interrupt>
   1e052:	00 00       	nop
   1e054:	58 c0       	rjmp	.+176    	; 0x1e106 <__bad_interrupt>
   1e056:	00 00       	nop
   1e058:	56 c0       	rjmp	.+172    	; 0x1e106 <__bad_interrupt>
   1e05a:	00 00       	nop
   1e05c:	54 c0       	rjmp	.+168    	; 0x1e106 <__bad_interrupt>
   1e05e:	00 00       	nop
   1e060:	52 c0       	rjmp	.+164    	; 0x1e106 <__bad_interrupt>
   1e062:	00 00       	nop
   1e064:	f2 c1       	rjmp	.+996    	; 0x1e44a <__vector_25>
   1e066:	00 00       	nop
   1e068:	19 c2       	rjmp	.+1074   	; 0x1e49c <__vector_26>
   1e06a:	00 00       	nop
   1e06c:	4c c0       	rjmp	.+152    	; 0x1e106 <__bad_interrupt>
   1e06e:	00 00       	nop
   1e070:	4a c0       	rjmp	.+148    	; 0x1e106 <__bad_interrupt>
   1e072:	00 00       	nop
   1e074:	48 c0       	rjmp	.+144    	; 0x1e106 <__bad_interrupt>
   1e076:	00 00       	nop
   1e078:	46 c0       	rjmp	.+140    	; 0x1e106 <__bad_interrupt>
   1e07a:	00 00       	nop
   1e07c:	44 c0       	rjmp	.+136    	; 0x1e106 <__bad_interrupt>
   1e07e:	00 00       	nop
   1e080:	42 c0       	rjmp	.+132    	; 0x1e106 <__bad_interrupt>
   1e082:	00 00       	nop
   1e084:	40 c0       	rjmp	.+128    	; 0x1e106 <__bad_interrupt>
   1e086:	00 00       	nop
   1e088:	3e c0       	rjmp	.+124    	; 0x1e106 <__bad_interrupt>
   1e08a:	00 00       	nop
   1e08c:	3c c0       	rjmp	.+120    	; 0x1e106 <__bad_interrupt>
   1e08e:	00 00       	nop
   1e090:	34 c2       	rjmp	.+1128   	; 0x1e4fa <__vector_36>
   1e092:	00 00       	nop
   1e094:	5b c2       	rjmp	.+1206   	; 0x1e54c <__vector_37>
   1e096:	00 00       	nop
   1e098:	36 c0       	rjmp	.+108    	; 0x1e106 <__bad_interrupt>
   1e09a:	00 00       	nop
   1e09c:	34 c0       	rjmp	.+104    	; 0x1e106 <__bad_interrupt>
   1e09e:	00 00       	nop
   1e0a0:	32 c0       	rjmp	.+100    	; 0x1e106 <__bad_interrupt>
   1e0a2:	00 00       	nop
   1e0a4:	30 c0       	rjmp	.+96     	; 0x1e106 <__bad_interrupt>
   1e0a6:	00 00       	nop
   1e0a8:	2e c0       	rjmp	.+92     	; 0x1e106 <__bad_interrupt>
   1e0aa:	00 00       	nop
   1e0ac:	2c c0       	rjmp	.+88     	; 0x1e106 <__bad_interrupt>
   1e0ae:	00 00       	nop
   1e0b0:	2a c0       	rjmp	.+84     	; 0x1e106 <__bad_interrupt>
   1e0b2:	00 00       	nop
   1e0b4:	28 c0       	rjmp	.+80     	; 0x1e106 <__bad_interrupt>
   1e0b6:	00 00       	nop
   1e0b8:	26 c0       	rjmp	.+76     	; 0x1e106 <__bad_interrupt>
   1e0ba:	00 00       	nop
   1e0bc:	24 c0       	rjmp	.+72     	; 0x1e106 <__bad_interrupt>
   1e0be:	00 00       	nop
   1e0c0:	22 c0       	rjmp	.+68     	; 0x1e106 <__bad_interrupt>
   1e0c2:	00 00       	nop
   1e0c4:	20 c0       	rjmp	.+64     	; 0x1e106 <__bad_interrupt>
   1e0c6:	00 00       	nop
   1e0c8:	1e c0       	rjmp	.+60     	; 0x1e106 <__bad_interrupt>
	...

0001e0cc <__ctors_end>:
   1e0cc:	11 24       	eor	r1, r1
   1e0ce:	1f be       	out	0x3f, r1	; 63
   1e0d0:	cf ef       	ldi	r28, 0xFF	; 255
   1e0d2:	d1 e2       	ldi	r29, 0x21	; 33
   1e0d4:	de bf       	out	0x3e, r29	; 62
   1e0d6:	cd bf       	out	0x3d, r28	; 61

0001e0d8 <__do_copy_data>:
   1e0d8:	12 e0       	ldi	r17, 0x02	; 2
   1e0da:	a0 e0       	ldi	r26, 0x00	; 0
   1e0dc:	b2 e0       	ldi	r27, 0x02	; 2
   1e0de:	e6 e6       	ldi	r30, 0x66	; 102
   1e0e0:	f6 ee       	ldi	r31, 0xE6	; 230
   1e0e2:	01 e0       	ldi	r16, 0x01	; 1
   1e0e4:	0b bf       	out	0x3b, r16	; 59
   1e0e6:	02 c0       	rjmp	.+4      	; 0x1e0ec <__do_copy_data+0x14>
   1e0e8:	07 90       	elpm	r0, Z+
   1e0ea:	0d 92       	st	X+, r0
   1e0ec:	a0 30       	cpi	r26, 0x00	; 0
   1e0ee:	b1 07       	cpc	r27, r17
   1e0f0:	d9 f7       	brne	.-10     	; 0x1e0e8 <__do_copy_data+0x10>

0001e0f2 <__do_clear_bss>:
   1e0f2:	26 e0       	ldi	r18, 0x06	; 6
   1e0f4:	a0 e0       	ldi	r26, 0x00	; 0
   1e0f6:	b2 e0       	ldi	r27, 0x02	; 2
   1e0f8:	01 c0       	rjmp	.+2      	; 0x1e0fc <.do_clear_bss_start>

0001e0fa <.do_clear_bss_loop>:
   1e0fa:	1d 92       	st	X+, r1

0001e0fc <.do_clear_bss_start>:
   1e0fc:	a8 30       	cpi	r26, 0x08	; 8
   1e0fe:	b2 07       	cpc	r27, r18
   1e100:	e1 f7       	brne	.-8      	; 0x1e0fa <.do_clear_bss_loop>
   1e102:	b6 d0       	rcall	.+364    	; 0x1e270 <main>
   1e104:	ae c2       	rjmp	.+1372   	; 0x1e662 <_exit>

0001e106 <__bad_interrupt>:
   1e106:	7c cf       	rjmp	.-264    	; 0x1e000 <__vectors>

0001e108 <flash_page_write>:
#include <avr/interrupt.h>


/* ”Ī”Ī Flash Write ”Ī”Ī */
void flash_page_write(uint32_t addr, uint8_t *buf)
{
   1e108:	8f 92       	push	r8
   1e10a:	9f 92       	push	r9
   1e10c:	af 92       	push	r10
   1e10e:	bf 92       	push	r11
   1e110:	cf 92       	push	r12
   1e112:	df 92       	push	r13
   1e114:	ef 92       	push	r14
   1e116:	ff 92       	push	r15
   1e118:	4b 01       	movw	r8, r22
   1e11a:	5c 01       	movw	r10, r24
   1e11c:	da 01       	movw	r26, r20
	cli();
   1e11e:	f8 94       	cli

	/* 1. Erase */
	boot_page_erase(addr);
   1e120:	83 e0       	ldi	r24, 0x03	; 3
   1e122:	f4 01       	movw	r30, r8
   1e124:	a0 92 5b 00 	sts	0x005B, r10	; 0x80005b <__TEXT_REGION_LENGTH__+0x7e005b>
   1e128:	80 93 57 00 	sts	0x0057, r24	; 0x800057 <__TEXT_REGION_LENGTH__+0x7e0057>
   1e12c:	e8 95       	spm
	while(SPMCSR & (1 << SPMEN));
   1e12e:	07 b6       	in	r0, 0x37	; 55
   1e130:	00 fc       	sbrc	r0, 0
   1e132:	fd cf       	rjmp	.-6      	; 0x1e12e <flash_page_write+0x26>
   1e134:	20 e0       	ldi	r18, 0x00	; 0
   1e136:	30 e0       	ldi	r19, 0x00	; 0
   1e138:	17 c0       	rjmp	.+46     	; 0x1e168 <flash_page_write+0x60>

	/* 2. Fill (Word ┤▄└¦) */
	for(uint16_t i = 0; i < PAGE_SIZE; i += 2) {
		uint16_t word = buf[i] | ((uint16_t)buf[i+1] << 8);
   1e13a:	fd 01       	movw	r30, r26
   1e13c:	e2 0f       	add	r30, r18
   1e13e:	f3 1f       	adc	r31, r19
   1e140:	40 81       	ld	r20, Z
   1e142:	81 81       	ldd	r24, Z+1	; 0x01
   1e144:	90 e0       	ldi	r25, 0x00	; 0
   1e146:	98 2f       	mov	r25, r24
   1e148:	88 27       	eor	r24, r24
   1e14a:	84 2b       	or	r24, r20
		boot_page_fill(i, word);
   1e14c:	69 01       	movw	r12, r18
   1e14e:	e1 2c       	mov	r14, r1
   1e150:	f1 2c       	mov	r15, r1
   1e152:	51 e0       	ldi	r21, 0x01	; 1
   1e154:	0c 01       	movw	r0, r24
   1e156:	f6 01       	movw	r30, r12
   1e158:	e0 92 5b 00 	sts	0x005B, r14	; 0x80005b <__TEXT_REGION_LENGTH__+0x7e005b>
   1e15c:	50 93 57 00 	sts	0x0057, r21	; 0x800057 <__TEXT_REGION_LENGTH__+0x7e0057>
   1e160:	e8 95       	spm
   1e162:	11 24       	eor	r1, r1
	/* 1. Erase */
	boot_page_erase(addr);
	while(SPMCSR & (1 << SPMEN));

	/* 2. Fill (Word ┤▄└¦) */
	for(uint16_t i = 0; i < PAGE_SIZE; i += 2) {
   1e164:	2e 5f       	subi	r18, 0xFE	; 254
   1e166:	3f 4f       	sbci	r19, 0xFF	; 255
   1e168:	2f 3f       	cpi	r18, 0xFF	; 255
   1e16a:	31 05       	cpc	r19, r1
   1e16c:	31 f3       	breq	.-52     	; 0x1e13a <flash_page_write+0x32>
   1e16e:	28 f3       	brcs	.-54     	; 0x1e13a <flash_page_write+0x32>
		uint16_t word = buf[i] | ((uint16_t)buf[i+1] << 8);
		boot_page_fill(i, word);
	}

	/* 3. Write */
	boot_page_write(addr);
   1e170:	85 e0       	ldi	r24, 0x05	; 5
   1e172:	f4 01       	movw	r30, r8
   1e174:	a0 92 5b 00 	sts	0x005B, r10	; 0x80005b <__TEXT_REGION_LENGTH__+0x7e005b>
   1e178:	80 93 57 00 	sts	0x0057, r24	; 0x800057 <__TEXT_REGION_LENGTH__+0x7e0057>
   1e17c:	e8 95       	spm
	while(SPMCSR & (1 << SPMEN));
   1e17e:	07 b6       	in	r0, 0x37	; 55
   1e180:	00 fc       	sbrc	r0, 0
   1e182:	fd cf       	rjmp	.-6      	; 0x1e17e <flash_page_write+0x76>

	/* 4. RWW └ń╚░╝║╚Ł */
	boot_rww_enable();
   1e184:	81 e1       	ldi	r24, 0x11	; 17
   1e186:	80 93 57 00 	sts	0x0057, r24	; 0x800057 <__TEXT_REGION_LENGTH__+0x7e0057>
   1e18a:	e8 95       	spm

	sei();
   1e18c:	78 94       	sei
}
   1e18e:	ff 90       	pop	r15
   1e190:	ef 90       	pop	r14
   1e192:	df 90       	pop	r13
   1e194:	cf 90       	pop	r12
   1e196:	bf 90       	pop	r11
   1e198:	af 90       	pop	r10
   1e19a:	9f 90       	pop	r9
   1e19c:	8f 90       	pop	r8
   1e19e:	08 95       	ret

0001e1a0 <jump_to_app>:

/* ”Ī”Ī App ┴ĪŪ┴ ”Ī”Ī */
void jump_to_app(void)
{
	/* └╬┼═Ę┤Ų« ║ż┼═ Īµ App ┐Ą┐¬ */
	cli();
   1e1a0:	f8 94       	cli
	MCUCR = (1 << IVCE);	// interrupt vector change enable
   1e1a2:	81 e0       	ldi	r24, 0x01	; 1
   1e1a4:	85 bf       	out	0x35, r24	; 53
	MCUCR = (0 << IVSEL);	// interrupt vector select
   1e1a6:	15 be       	out	0x35, r1	; 53
	
	/* UART ║±╚░╝║╚Ł */
	UCSR0B = 0x00;
   1e1a8:	10 92 c1 00 	sts	0x00C1, r1	; 0x8000c1 <__TEXT_REGION_LENGTH__+0x7e00c1>

	asm volatile("jmp 0x0");
   1e1ac:	0c 94 00 00 	jmp	0	; 0x0 <__TEXT_REGION_ORIGIN__>
   1e1b0:	08 95       	ret

0001e1b2 <run_bootloader>:
#include "uart.h"
#include "boot.h"
#include "protocol.h"

void run_bootloader(void)
{
   1e1b2:	cf 92       	push	r12
   1e1b4:	df 92       	push	r13
   1e1b6:	ef 92       	push	r14
   1e1b8:	ff 92       	push	r15
   1e1ba:	cf 93       	push	r28
   1e1bc:	df 93       	push	r29
   1e1be:	cd b7       	in	r28, 0x3d	; 61
   1e1c0:	de b7       	in	r29, 0x3e	; 62
   1e1c2:	c6 50       	subi	r28, 0x06	; 6
   1e1c4:	d1 40       	sbci	r29, 0x01	; 1
   1e1c6:	0f b6       	in	r0, 0x3f	; 63
   1e1c8:	f8 94       	cli
   1e1ca:	de bf       	out	0x3e, r29	; 62
   1e1cc:	0f be       	out	0x3f, r0	; 63
   1e1ce:	cd bf       	out	0x3d, r28	; 61
	bl_data_packet_t pkt;
	uint32_t write_addr = 0x0000;
   1e1d0:	c1 2c       	mov	r12, r1
   1e1d2:	d1 2c       	mov	r13, r1
   1e1d4:	76 01       	movw	r14, r12
	while(1){
		uint8_t result = recv_packet(&pkt);
   1e1d6:	ce 01       	movw	r24, r28
   1e1d8:	01 96       	adiw	r24, 0x01	; 1
   1e1da:	99 d0       	rcall	.+306    	; 0x1e30e <recv_packet>
	if (__tmp < 1.0)
		__ticks = 1;
	else if (__tmp > 65535)
	{
		//	__ticks = requested delay in 1/10 ms
		__ticks = (uint16_t) (__ms * 10.0);
   1e1dc:	28 ee       	ldi	r18, 0xE8	; 232
   1e1de:	33 e0       	ldi	r19, 0x03	; 3
   1e1e0:	06 c0       	rjmp	.+12     	; 0x1e1ee <run_bootloader+0x3c>
    milliseconds can be achieved.
 */
void
_delay_loop_2(uint16_t __count)
{
	__asm__ volatile (
   1e1e2:	e0 e9       	ldi	r30, 0x90	; 144
   1e1e4:	f1 e0       	ldi	r31, 0x01	; 1
   1e1e6:	31 97       	sbiw	r30, 0x01	; 1
   1e1e8:	f1 f7       	brne	.-4      	; 0x1e1e6 <run_bootloader+0x34>
		while(__ticks)
		{
			// wait 1/10 ms
			_delay_loop_2(((F_CPU) / 4e3) / 10);
			__ticks --;
   1e1ea:	21 50       	subi	r18, 0x01	; 1
   1e1ec:	31 09       	sbc	r19, r1
		__ticks = 1;
	else if (__tmp > 65535)
	{
		//	__ticks = requested delay in 1/10 ms
		__ticks = (uint16_t) (__ms * 10.0);
		while(__ticks)
   1e1ee:	21 15       	cp	r18, r1
   1e1f0:	31 05       	cpc	r19, r1
   1e1f2:	b9 f7       	brne	.-18     	; 0x1e1e2 <run_bootloader+0x30>
		_delay_ms(100);
		
		if(result == MSG_DATA) {
   1e1f4:	81 30       	cpi	r24, 0x01	; 1
   1e1f6:	d9 f4       	brne	.+54     	; 0x1e22e <run_bootloader+0x7c>
			if(write_addr >= BOOT_START) {
   1e1f8:	c1 14       	cp	r12, r1
   1e1fa:	80 ee       	ldi	r24, 0xE0	; 224
   1e1fc:	d8 06       	cpc	r13, r24
   1e1fe:	81 e0       	ldi	r24, 0x01	; 1
   1e200:	e8 06       	cpc	r14, r24
   1e202:	f1 04       	cpc	r15, r1
   1e204:	18 f0       	brcs	.+6      	; 0x1e20c <run_bootloader+0x5a>
				USART1_Transmit(NAK);
   1e206:	85 e1       	ldi	r24, 0x15	; 21
   1e208:	e8 d1       	rcall	.+976    	; 0x1e5da <USART1_Transmit>
		}
		else {
			USART1_Transmit(NAK);
		}
	}
}
   1e20a:	24 c0       	rjmp	.+72     	; 0x1e254 <run_bootloader+0xa2>
		if(result == MSG_DATA) {
			if(write_addr >= BOOT_START) {
				USART1_Transmit(NAK);
				break;
			}
			flash_page_write(write_addr, pkt.data);
   1e20c:	ae 01       	movw	r20, r28
   1e20e:	4b 5f       	subi	r20, 0xFB	; 251
   1e210:	5f 4f       	sbci	r21, 0xFF	; 255
   1e212:	c7 01       	movw	r24, r14
   1e214:	b6 01       	movw	r22, r12
			USART1_Transmit(ACK);
   1e216:	78 df       	rcall	.-272    	; 0x1e108 <flash_page_write>
   1e218:	86 e0       	ldi	r24, 0x06	; 6
   1e21a:	df d1       	rcall	.+958    	; 0x1e5da <USART1_Transmit>
			write_addr += PAGE_SIZE;
   1e21c:	8f ef       	ldi	r24, 0xFF	; 255
   1e21e:	d8 1a       	sub	r13, r24
   1e220:	e8 0a       	sbc	r14, r24
   1e222:	f8 0a       	sbc	r15, r24
			PORTC ^= 0x01;
   1e224:	98 b1       	in	r25, 0x08	; 8
   1e226:	81 e0       	ldi	r24, 0x01	; 1
   1e228:	89 27       	eor	r24, r25
   1e22a:	88 b9       	out	0x08, r24	; 8
		}
		
		else if(result == MSG_END) {
   1e22c:	d4 cf       	rjmp	.-88     	; 0x1e1d6 <run_bootloader+0x24>
   1e22e:	82 30       	cpi	r24, 0x02	; 2
			USART1_Transmit(ACK);
   1e230:	71 f4       	brne	.+28     	; 0x1e24e <run_bootloader+0x9c>
   1e232:	86 e0       	ldi	r24, 0x06	; 6
   1e234:	d2 d1       	rcall	.+932    	; 0x1e5da <USART1_Transmit>
	if (__tmp < 1.0)
		__ticks = 1;
	else if (__tmp > 65535)
	{
		//	__ticks = requested delay in 1/10 ms
		__ticks = (uint16_t) (__ms * 10.0);
   1e236:	88 ee       	ldi	r24, 0xE8	; 232
   1e238:	93 e0       	ldi	r25, 0x03	; 3
   1e23a:	05 c0       	rjmp	.+10     	; 0x1e246 <run_bootloader+0x94>
   1e23c:	e0 e9       	ldi	r30, 0x90	; 144
   1e23e:	f1 e0       	ldi	r31, 0x01	; 1
   1e240:	31 97       	sbiw	r30, 0x01	; 1
		while(__ticks)
		{
			// wait 1/10 ms
			_delay_loop_2(((F_CPU) / 4e3) / 10);
			__ticks --;
   1e242:	f1 f7       	brne	.-4      	; 0x1e240 <run_bootloader+0x8e>
		__ticks = 1;
	else if (__tmp > 65535)
	{
		//	__ticks = requested delay in 1/10 ms
		__ticks = (uint16_t) (__ms * 10.0);
		while(__ticks)
   1e244:	01 97       	sbiw	r24, 0x01	; 1
			_delay_ms(100);
			jump_to_app();
   1e246:	00 97       	sbiw	r24, 0x00	; 0
   1e248:	c9 f7       	brne	.-14     	; 0x1e23c <run_bootloader+0x8a>
   1e24a:	aa df       	rcall	.-172    	; 0x1e1a0 <jump_to_app>
		}
		else {
			USART1_Transmit(NAK);
   1e24c:	c4 cf       	rjmp	.-120    	; 0x1e1d6 <run_bootloader+0x24>
   1e24e:	85 e1       	ldi	r24, 0x15	; 21
   1e250:	c4 d1       	rcall	.+904    	; 0x1e5da <USART1_Transmit>
   1e252:	c1 cf       	rjmp	.-126    	; 0x1e1d6 <run_bootloader+0x24>
		}
	}
}
   1e254:	ca 5f       	subi	r28, 0xFA	; 250
   1e256:	de 4f       	sbci	r29, 0xFE	; 254
   1e258:	0f b6       	in	r0, 0x3f	; 63
   1e25a:	f8 94       	cli
   1e25c:	de bf       	out	0x3e, r29	; 62
   1e25e:	0f be       	out	0x3f, r0	; 63
   1e260:	cd bf       	out	0x3d, r28	; 61
   1e262:	df 91       	pop	r29
   1e264:	cf 91       	pop	r28
   1e266:	ff 90       	pop	r15
   1e268:	ef 90       	pop	r14
   1e26a:	df 90       	pop	r13
   1e26c:	cf 90       	pop	r12
   1e26e:	08 95       	ret

0001e270 <main>:


int main(void)
{
   1e270:	cf 93       	push	r28
   1e272:	df 93       	push	r29
	DDRC  = 0xFF;
   1e274:	8f ef       	ldi	r24, 0xFF	; 255
   1e276:	87 b9       	out	0x07, r24	; 7
	PORTC = 0x00;
   1e278:	18 b8       	out	0x08, r1	; 8
	UART0_init();
   1e27a:	97 d1       	rcall	.+814    	; 0x1e5aa <UART0_init>
	UART1_init();
   1e27c:	a2 d1       	rcall	.+836    	; 0x1e5c2 <UART1_init>
   1e27e:	81 e0       	ldi	r24, 0x01	; 1

	MCUCR = (1 << IVCE);
   1e280:	85 bf       	out	0x35, r24	; 53
   1e282:	82 e0       	ldi	r24, 0x02	; 2
	MCUCR = (1 << IVSEL);
   1e284:	85 bf       	out	0x35, r24	; 53
   1e286:	78 94       	sei
    sei();
   1e288:	80 e1       	ldi	r24, 0x10	; 16
		//
	//}
//}


	uint16_t timeout = 10000;
   1e28a:	97 e2       	ldi	r25, 0x27	; 39
   1e28c:	12 c0       	rjmp	.+36     	; 0x1e2b2 <main+0x42>
	unsigned char c = 0;
	while(timeout--){
   1e28e:	85 e0       	ldi	r24, 0x05	; 5
		PORTC = 0x05;
   1e290:	88 b9       	out	0x08, r24	; 8
   1e292:	80 e4       	ldi	r24, 0x40	; 64
   1e294:	9c e9       	ldi	r25, 0x9C	; 156
   1e296:	01 97       	sbiw	r24, 0x01	; 1
   1e298:	f1 f7       	brne	.-4      	; 0x1e296 <main+0x26>
		_delay_ms(10);

	// start ņŗĀĒśĖ ĒÖĢņØĖ
		if(USART1_Available()){
   1e29a:	c6 d1       	rcall	.+908    	; 0x1e628 <USART1_Available>
   1e29c:	89 2b       	or	r24, r25
   1e29e:	41 f0       	breq	.+16     	; 0x1e2b0 <main+0x40>
			c = USART1_Receive();
   1e2a0:	b1 d1       	rcall	.+866    	; 0x1e604 <USART1_Receive>
			if(c == 'S'){
   1e2a2:	83 35       	cpi	r24, 0x53	; 83
				USART1_RxFlush();
   1e2a4:	29 f4       	brne	.+10     	; 0x1e2b0 <main+0x40>
				USART1_Transmit('R');
   1e2a6:	ca d1       	rcall	.+916    	; 0x1e63c <USART1_RxFlush>
   1e2a8:	82 e5       	ldi	r24, 0x52	; 82
   1e2aa:	97 d1       	rcall	.+814    	; 0x1e5da <USART1_Transmit>
				USART1_FlushTx();
   1e2ac:	cf d1       	rcall	.+926    	; 0x1e64c <USART1_FlushTx>
   1e2ae:	81 df       	rcall	.-254    	; 0x1e1b2 <run_bootloader>
				run_bootloader();
   1e2b0:	ce 01       	movw	r24, r28
   1e2b2:	ec 01       	movw	r28, r24
	}
}


int main(void)
{
   1e2b4:	21 97       	sbiw	r28, 0x01	; 1
//}


	uint16_t timeout = 10000;
	unsigned char c = 0;
	while(timeout--){
   1e2b6:	89 2b       	or	r24, r25
   1e2b8:	51 f7       	brne	.-44     	; 0x1e28e <main+0x1e>
   1e2ba:	80 e0       	ldi	r24, 0x00	; 0
   1e2bc:	90 e0       	ldi	r25, 0x00	; 0
		jump_to_app();
	}
*/
	while(1);
	return 0;
   1e2be:	df 91       	pop	r29
   1e2c0:	cf 91       	pop	r28
   1e2c2:	08 95       	ret

0001e2c4 <crc16>:
 * Polynomial: 0x1021
 * Init:       0xFFFF
 * Ļ│äņé░ ļ▓öņ£ä:  MSG_TYPE + DATA_LENGTH + DATA
 */
uint16_t crc16(uint8_t *data, uint16_t len)
{
   1e2c4:	dc 01       	movw	r26, r24
	uint16_t crc = 0xFFFF;
	for (uint16_t i = 0; i < len; i++) {
   1e2c6:	40 e0       	ldi	r20, 0x00	; 0
   1e2c8:	50 e0       	ldi	r21, 0x00	; 0
 * Init:       0xFFFF
 * Ļ│äņé░ ļ▓öņ£ä:  MSG_TYPE + DATA_LENGTH + DATA
 */
uint16_t crc16(uint8_t *data, uint16_t len)
{
	uint16_t crc = 0xFFFF;
   1e2ca:	8f ef       	ldi	r24, 0xFF	; 255
   1e2cc:	9f ef       	ldi	r25, 0xFF	; 255
	for (uint16_t i = 0; i < len; i++) {
   1e2ce:	1b c0       	rjmp	.+54     	; 0x1e306 <crc16+0x42>
		crc ^= ((uint16_t)data[i] << 8);
   1e2d0:	fd 01       	movw	r30, r26
   1e2d2:	e4 0f       	add	r30, r20
   1e2d4:	f5 1f       	adc	r31, r21
   1e2d6:	20 81       	ld	r18, Z
   1e2d8:	30 e0       	ldi	r19, 0x00	; 0
   1e2da:	32 2f       	mov	r19, r18
   1e2dc:	22 27       	eor	r18, r18
   1e2de:	82 27       	eor	r24, r18
   1e2e0:	93 27       	eor	r25, r19
		for (uint8_t j = 0; j < 8; j++) {
   1e2e2:	20 e0       	ldi	r18, 0x00	; 0
   1e2e4:	0c c0       	rjmp	.+24     	; 0x1e2fe <crc16+0x3a>
			crc = (crc & 0x8000) ? (crc << 1) ^ 0x1021 : (crc << 1);
   1e2e6:	99 23       	and	r25, r25
   1e2e8:	3c f4       	brge	.+14     	; 0x1e2f8 <crc16+0x34>
   1e2ea:	88 0f       	add	r24, r24
   1e2ec:	99 1f       	adc	r25, r25
   1e2ee:	31 e2       	ldi	r19, 0x21	; 33
   1e2f0:	83 27       	eor	r24, r19
   1e2f2:	30 e1       	ldi	r19, 0x10	; 16
   1e2f4:	93 27       	eor	r25, r19
   1e2f6:	02 c0       	rjmp	.+4      	; 0x1e2fc <crc16+0x38>
   1e2f8:	88 0f       	add	r24, r24
   1e2fa:	99 1f       	adc	r25, r25
uint16_t crc16(uint8_t *data, uint16_t len)
{
	uint16_t crc = 0xFFFF;
	for (uint16_t i = 0; i < len; i++) {
		crc ^= ((uint16_t)data[i] << 8);
		for (uint8_t j = 0; j < 8; j++) {
   1e2fc:	2f 5f       	subi	r18, 0xFF	; 255
   1e2fe:	28 30       	cpi	r18, 0x08	; 8
   1e300:	90 f3       	brcs	.-28     	; 0x1e2e6 <crc16+0x22>
 * Ļ│äņé░ ļ▓öņ£ä:  MSG_TYPE + DATA_LENGTH + DATA
 */
uint16_t crc16(uint8_t *data, uint16_t len)
{
	uint16_t crc = 0xFFFF;
	for (uint16_t i = 0; i < len; i++) {
   1e302:	4f 5f       	subi	r20, 0xFF	; 255
   1e304:	5f 4f       	sbci	r21, 0xFF	; 255
   1e306:	46 17       	cp	r20, r22
   1e308:	57 07       	cpc	r21, r23
   1e30a:	10 f3       	brcs	.-60     	; 0x1e2d0 <crc16+0xc>
		for (uint8_t j = 0; j < 8; j++) {
			crc = (crc & 0x8000) ? (crc << 1) ^ 0x1021 : (crc << 1);
		}
	}
	return crc;
}
   1e30c:	08 95       	ret

0001e30e <recv_packet>:
 *   MSG_DATA(0x01) ŌåÆ data_length = 256, data ņ×łņØī
 *   MSG_END (0x02) ŌåÆ data_length = 0,   data ņŚåņØī
 */
/* ŌöĆŌöĆ 262ļ░öņØ┤ĒŖĖ ņłśņŗĀ Ēøä Ēīīņŗ▒ ŌöĆŌöĆ */
uint8_t recv_packet(bl_data_packet_t *pkt)
{
   1e30e:	ef 92       	push	r14
   1e310:	ff 92       	push	r15
   1e312:	0f 93       	push	r16
   1e314:	1f 93       	push	r17
   1e316:	cf 93       	push	r28
   1e318:	df 93       	push	r29
   1e31a:	cd b7       	in	r28, 0x3d	; 61
   1e31c:	de b7       	in	r29, 0x3e	; 62
   1e31e:	c9 50       	subi	r28, 0x09	; 9
   1e320:	d2 40       	sbci	r29, 0x02	; 2
   1e322:	0f b6       	in	r0, 0x3f	; 63
   1e324:	f8 94       	cli
   1e326:	de bf       	out	0x3e, r29	; 62
   1e328:	0f be       	out	0x3f, r0	; 63
   1e32a:	cd bf       	out	0x3d, r28	; 61
   1e32c:	7c 01       	movw	r14, r24
    uint8_t raw[PKT_SIZE];
	
	while(!USART1_Available());
   1e32e:	7c d1       	rcall	.+760    	; 0x1e628 <USART1_Available>
   1e330:	89 2b       	or	r24, r25
   1e332:	e9 f3       	breq	.-6      	; 0x1e32e <recv_packet+0x20>
	do {
		raw[0] = USART1_Receive();
   1e334:	67 d1       	rcall	.+718    	; 0x1e604 <USART1_Receive>
   1e336:	89 83       	std	Y+1, r24	; 0x01
   1e338:	8f 3e       	cpi	r24, 0xEF	; 239
	}while(raw[0] != START_CODE);
   1e33a:	e1 f7       	brne	.-8      	; 0x1e334 <recv_packet+0x26>
   1e33c:	01 e0       	ldi	r16, 0x01	; 1
   1e33e:	10 e0       	ldi	r17, 0x00	; 0
   1e340:	0a c0       	rjmp	.+20     	; 0x1e356 <recv_packet+0x48>
	
    /* Step 1. 262ļ░öņØ┤ĒŖĖ ņĀäļČĆ ņłśņŗĀ */
    for(uint16_t i = 1; i < PKT_SIZE; i++){
        raw[i] = USART1_Receive();
   1e342:	60 d1       	rcall	.+704    	; 0x1e604 <USART1_Receive>
   1e344:	e1 e0       	ldi	r30, 0x01	; 1
   1e346:	f0 e0       	ldi	r31, 0x00	; 0
   1e348:	ec 0f       	add	r30, r28
   1e34a:	fd 1f       	adc	r31, r29
   1e34c:	e0 0f       	add	r30, r16
   1e34e:	f1 1f       	adc	r31, r17
   1e350:	80 83       	st	Z, r24
   1e352:	0f 5f       	subi	r16, 0xFF	; 255
	do {
		raw[0] = USART1_Receive();
	}while(raw[0] != START_CODE);
	
    /* Step 1. 262ļ░öņØ┤ĒŖĖ ņĀäļČĆ ņłśņŗĀ */
    for(uint16_t i = 1; i < PKT_SIZE; i++){
   1e354:	1f 4f       	sbci	r17, 0xFF	; 255
   1e356:	06 30       	cpi	r16, 0x06	; 6
   1e358:	41 e0       	ldi	r20, 0x01	; 1
   1e35a:	14 07       	cpc	r17, r20
   1e35c:	90 f3       	brcs	.-28     	; 0x1e342 <recv_packet+0x34>
   1e35e:	89 81       	ldd	r24, Y+1	; 0x01
    //if(raw[0] != START_CODE)
        //return NAK;

    /* Step 3. Ēīīņŗ▒ */
	// data_length = little endian
    pkt->start_code  = raw[0];
   1e360:	f7 01       	movw	r30, r14
   1e362:	80 83       	st	Z, r24
   1e364:	5a 81       	ldd	r21, Y+2	; 0x02
    pkt->msg_type    = raw[1];
   1e366:	51 83       	std	Z+1, r21	; 0x01
   1e368:	4b 81       	ldd	r20, Y+3	; 0x03
    pkt->data_length = (uint16_t)raw[2]
   1e36a:	3c 81       	ldd	r19, Y+4	; 0x04
                     | ((uint16_t)raw[3] << 8);
   1e36c:	83 2f       	mov	r24, r19
   1e36e:	90 e0       	ldi	r25, 0x00	; 0
   1e370:	98 2f       	mov	r25, r24
   1e372:	88 27       	eor	r24, r24
   1e374:	84 2b       	or	r24, r20
   1e376:	93 83       	std	Z+3, r25	; 0x03

    /* Step 3. Ēīīņŗ▒ */
	// data_length = little endian
    pkt->start_code  = raw[0];
    pkt->msg_type    = raw[1];
    pkt->data_length = (uint16_t)raw[2]
   1e378:	82 83       	std	Z+2, r24	; 0x02
   1e37a:	80 e0       	ldi	r24, 0x00	; 0
                     | ((uint16_t)raw[3] << 8);
    for(uint16_t i = 0; i < PAGE_SIZE; i++){
   1e37c:	90 e0       	ldi	r25, 0x00	; 0
   1e37e:	0e c0       	rjmp	.+28     	; 0x1e39c <recv_packet+0x8e>
   1e380:	fc 01       	movw	r30, r24
        pkt->data[i] = raw[4 + i];
   1e382:	34 96       	adiw	r30, 0x04	; 4
   1e384:	61 e0       	ldi	r22, 0x01	; 1
   1e386:	70 e0       	ldi	r23, 0x00	; 0
   1e388:	6c 0f       	add	r22, r28
   1e38a:	7d 1f       	adc	r23, r29
   1e38c:	e6 0f       	add	r30, r22
   1e38e:	f7 1f       	adc	r31, r23
   1e390:	20 81       	ld	r18, Z
   1e392:	f7 01       	movw	r30, r14
   1e394:	e8 0f       	add	r30, r24
   1e396:	f9 1f       	adc	r31, r25
   1e398:	24 83       	std	Z+4, r18	; 0x04
   1e39a:	01 96       	adiw	r24, 0x01	; 1
	// data_length = little endian
    pkt->start_code  = raw[0];
    pkt->msg_type    = raw[1];
    pkt->data_length = (uint16_t)raw[2]
                     | ((uint16_t)raw[3] << 8);
    for(uint16_t i = 0; i < PAGE_SIZE; i++){
   1e39c:	8f 3f       	cpi	r24, 0xFF	; 255
   1e39e:	91 05       	cpc	r25, r1
   1e3a0:	79 f3       	breq	.-34     	; 0x1e380 <recv_packet+0x72>
   1e3a2:	70 f3       	brcs	.-36     	; 0x1e380 <recv_packet+0x72>
   1e3a4:	cb 5f       	subi	r28, 0xFB	; 251
        pkt->data[i] = raw[4 + i];
	}

    pkt->crc16 = (uint16_t)raw[260]
   1e3a6:	de 4f       	sbci	r29, 0xFE	; 254
   1e3a8:	88 81       	ld	r24, Y
   1e3aa:	c5 50       	subi	r28, 0x05	; 5
   1e3ac:	d1 40       	sbci	r29, 0x01	; 1
   1e3ae:	ca 5f       	subi	r28, 0xFA	; 250
               | ((uint16_t)raw[261] << 8);
   1e3b0:	de 4f       	sbci	r29, 0xFE	; 254
   1e3b2:	08 81       	ld	r16, Y
   1e3b4:	c6 50       	subi	r28, 0x06	; 6
   1e3b6:	d1 40       	sbci	r29, 0x01	; 1
   1e3b8:	10 e0       	ldi	r17, 0x00	; 0
   1e3ba:	10 2f       	mov	r17, r16
   1e3bc:	00 27       	eor	r16, r16
   1e3be:	08 2b       	or	r16, r24
   1e3c0:	f7 01       	movw	r30, r14
                     | ((uint16_t)raw[3] << 8);
    for(uint16_t i = 0; i < PAGE_SIZE; i++){
        pkt->data[i] = raw[4 + i];
	}

    pkt->crc16 = (uint16_t)raw[260]
   1e3c2:	ec 5f       	subi	r30, 0xFC	; 252
   1e3c4:	fe 4f       	sbci	r31, 0xFE	; 254
   1e3c6:	11 83       	std	Z+1, r17	; 0x01
   1e3c8:	00 83       	st	Z, r16
   1e3ca:	c9 5f       	subi	r28, 0xF9	; 249

    /* Step 4. CRC Ļ▓Ćņ”Ø
     * ļ▓öņ£ä: MSG_TYPE(1) + DATA_LENGTH(2) + DATA(256)
     */
    uint8_t crc_buf[3 + PAGE_SIZE];
    crc_buf[0] = pkt->msg_type;
   1e3cc:	de 4f       	sbci	r29, 0xFE	; 254
   1e3ce:	58 83       	st	Y, r21
   1e3d0:	c7 50       	subi	r28, 0x07	; 7
   1e3d2:	d1 40       	sbci	r29, 0x01	; 1
   1e3d4:	c8 5f       	subi	r28, 0xF8	; 248
    crc_buf[1] = raw[2];
   1e3d6:	de 4f       	sbci	r29, 0xFE	; 254
   1e3d8:	48 83       	st	Y, r20
   1e3da:	c8 50       	subi	r28, 0x08	; 8
   1e3dc:	d1 40       	sbci	r29, 0x01	; 1
   1e3de:	c7 5f       	subi	r28, 0xF7	; 247
    crc_buf[2] = raw[3];
   1e3e0:	de 4f       	sbci	r29, 0xFE	; 254
   1e3e2:	38 83       	st	Y, r19
   1e3e4:	c9 50       	subi	r28, 0x09	; 9
   1e3e6:	d1 40       	sbci	r29, 0x01	; 1
   1e3e8:	80 e0       	ldi	r24, 0x00	; 0
    for(uint16_t i = 0; i < PAGE_SIZE; i++)
   1e3ea:	90 e0       	ldi	r25, 0x00	; 0
   1e3ec:	0f c0       	rjmp	.+30     	; 0x1e40c <recv_packet+0xfe>
   1e3ee:	fc 01       	movw	r30, r24
        crc_buf[3 + i] = pkt->data[i];
   1e3f0:	33 96       	adiw	r30, 0x03	; 3
   1e3f2:	d7 01       	movw	r26, r14
   1e3f4:	a8 0f       	add	r26, r24
   1e3f6:	b9 1f       	adc	r27, r25
   1e3f8:	14 96       	adiw	r26, 0x04	; 4
   1e3fa:	2c 91       	ld	r18, X
   1e3fc:	47 e0       	ldi	r20, 0x07	; 7
   1e3fe:	51 e0       	ldi	r21, 0x01	; 1
   1e400:	4c 0f       	add	r20, r28
   1e402:	5d 1f       	adc	r21, r29
   1e404:	e4 0f       	add	r30, r20
   1e406:	f5 1f       	adc	r31, r21
   1e408:	20 83       	st	Z, r18
   1e40a:	01 96       	adiw	r24, 0x01	; 1
     */
    uint8_t crc_buf[3 + PAGE_SIZE];
    crc_buf[0] = pkt->msg_type;
    crc_buf[1] = raw[2];
    crc_buf[2] = raw[3];
    for(uint16_t i = 0; i < PAGE_SIZE; i++)
   1e40c:	8f 3f       	cpi	r24, 0xFF	; 255
   1e40e:	91 05       	cpc	r25, r1
   1e410:	71 f3       	breq	.-36     	; 0x1e3ee <recv_packet+0xe0>
   1e412:	68 f3       	brcs	.-38     	; 0x1e3ee <recv_packet+0xe0>
   1e414:	63 e0       	ldi	r22, 0x03	; 3
        crc_buf[3 + i] = pkt->data[i];

    uint16_t calc = crc16(crc_buf, 3 + PAGE_SIZE);
   1e416:	71 e0       	ldi	r23, 0x01	; 1
   1e418:	ce 01       	movw	r24, r28
   1e41a:	89 5f       	subi	r24, 0xF9	; 249
   1e41c:	9e 4f       	sbci	r25, 0xFE	; 254
   1e41e:	52 df       	rcall	.-348    	; 0x1e2c4 <crc16>
   1e420:	08 17       	cp	r16, r24

    if(calc != pkt->crc16)
   1e422:	19 07       	cpc	r17, r25
   1e424:	19 f4       	brne	.+6      	; 0x1e42c <recv_packet+0x11e>
   1e426:	f7 01       	movw	r30, r14
        return NAK;

    return pkt->msg_type;
   1e428:	81 81       	ldd	r24, Z+1	; 0x01
   1e42a:	01 c0       	rjmp	.+2      	; 0x1e42e <recv_packet+0x120>
   1e42c:	85 e1       	ldi	r24, 0x15	; 21
        crc_buf[3 + i] = pkt->data[i];

    uint16_t calc = crc16(crc_buf, 3 + PAGE_SIZE);

    if(calc != pkt->crc16)
        return NAK;
   1e42e:	c7 5f       	subi	r28, 0xF7	; 247

    return pkt->msg_type;
   1e430:	dd 4f       	sbci	r29, 0xFD	; 253
   1e432:	0f b6       	in	r0, 0x3f	; 63
   1e434:	f8 94       	cli
   1e436:	de bf       	out	0x3e, r29	; 62
   1e438:	0f be       	out	0x3f, r0	; 63
   1e43a:	cd bf       	out	0x3d, r28	; 61
   1e43c:	df 91       	pop	r29
   1e43e:	cf 91       	pop	r28
   1e440:	1f 91       	pop	r17
   1e442:	0f 91       	pop	r16
   1e444:	ff 90       	pop	r15
   1e446:	ef 90       	pop	r14
   1e448:	08 95       	ret

0001e44a <__vector_25>:
   1e44a:	1f 92       	push	r1
	return 0;
}
static FILE uart_stdout = FDEV_SETUP_STREAM(uart_putchar, NULL, _FDEV_SETUP_WRITE);

void UART_stdout_init(void) {
	 stdout = &uart_stdout; 
   1e44c:	0f 92       	push	r0
   1e44e:	0f b6       	in	r0, 0x3f	; 63
   1e450:	0f 92       	push	r0
   1e452:	11 24       	eor	r1, r1
   1e454:	0b b6       	in	r0, 0x3b	; 59
   1e456:	0f 92       	push	r0
   1e458:	2f 93       	push	r18
   1e45a:	8f 93       	push	r24
   1e45c:	9f 93       	push	r25
   1e45e:	ef 93       	push	r30
   1e460:	ff 93       	push	r31
   1e462:	20 91 c6 00 	lds	r18, 0x00C6	; 0x8000c6 <__TEXT_REGION_LENGTH__+0x7e00c6>
   1e466:	80 91 07 04 	lds	r24, 0x0407	; 0x800407 <rx0_head>
   1e46a:	8f 5f       	subi	r24, 0xFF	; 255
   1e46c:	90 91 06 04 	lds	r25, 0x0406	; 0x800406 <rx0_tail>
   1e470:	89 17       	cp	r24, r25
   1e472:	41 f0       	breq	.+16     	; 0x1e484 <__vector_25+0x3a>
   1e474:	e0 91 07 04 	lds	r30, 0x0407	; 0x800407 <rx0_head>
   1e478:	f0 e0       	ldi	r31, 0x00	; 0
   1e47a:	e8 5f       	subi	r30, 0xF8	; 248
   1e47c:	fa 4f       	sbci	r31, 0xFA	; 250
   1e47e:	20 83       	st	Z, r18
   1e480:	80 93 07 04 	sts	0x0407, r24	; 0x800407 <rx0_head>
   1e484:	ff 91       	pop	r31
   1e486:	ef 91       	pop	r30
   1e488:	9f 91       	pop	r25
   1e48a:	8f 91       	pop	r24
   1e48c:	2f 91       	pop	r18
   1e48e:	0f 90       	pop	r0
   1e490:	0b be       	out	0x3b, r0	; 59
   1e492:	0f 90       	pop	r0
   1e494:	0f be       	out	0x3f, r0	; 63
   1e496:	0f 90       	pop	r0
   1e498:	1f 90       	pop	r1
   1e49a:	18 95       	reti

0001e49c <__vector_26>:
   1e49c:	1f 92       	push	r1
   1e49e:	0f 92       	push	r0
   1e4a0:	0f b6       	in	r0, 0x3f	; 63
   1e4a2:	0f 92       	push	r0
   1e4a4:	11 24       	eor	r1, r1
   1e4a6:	0b b6       	in	r0, 0x3b	; 59
   1e4a8:	0f 92       	push	r0
   1e4aa:	8f 93       	push	r24
   1e4ac:	9f 93       	push	r25
   1e4ae:	ef 93       	push	r30
   1e4b0:	ff 93       	push	r31
   1e4b2:	90 91 05 04 	lds	r25, 0x0405	; 0x800405 <tx0_head>
   1e4b6:	80 91 04 04 	lds	r24, 0x0404	; 0x800404 <tx0_tail>
   1e4ba:	98 13       	cpse	r25, r24
   1e4bc:	06 c0       	rjmp	.+12     	; 0x1e4ca <__vector_26+0x2e>
   1e4be:	e1 ec       	ldi	r30, 0xC1	; 193
   1e4c0:	f0 e0       	ldi	r31, 0x00	; 0
   1e4c2:	80 81       	ld	r24, Z
   1e4c4:	8f 7d       	andi	r24, 0xDF	; 223
   1e4c6:	80 83       	st	Z, r24
   1e4c8:	0d c0       	rjmp	.+26     	; 0x1e4e4 <__vector_26+0x48>
   1e4ca:	e0 91 04 04 	lds	r30, 0x0404	; 0x800404 <tx0_tail>
   1e4ce:	f0 e0       	ldi	r31, 0x00	; 0
   1e4d0:	e8 5f       	subi	r30, 0xF8	; 248
   1e4d2:	fb 4f       	sbci	r31, 0xFB	; 251
   1e4d4:	80 81       	ld	r24, Z
   1e4d6:	80 93 c6 00 	sts	0x00C6, r24	; 0x8000c6 <__TEXT_REGION_LENGTH__+0x7e00c6>
   1e4da:	80 91 04 04 	lds	r24, 0x0404	; 0x800404 <tx0_tail>
   1e4de:	8f 5f       	subi	r24, 0xFF	; 255
   1e4e0:	80 93 04 04 	sts	0x0404, r24	; 0x800404 <tx0_tail>
   1e4e4:	ff 91       	pop	r31
   1e4e6:	ef 91       	pop	r30
   1e4e8:	9f 91       	pop	r25
   1e4ea:	8f 91       	pop	r24
   1e4ec:	0f 90       	pop	r0
   1e4ee:	0b be       	out	0x3b, r0	; 59
   1e4f0:	0f 90       	pop	r0
   1e4f2:	0f be       	out	0x3f, r0	; 63
   1e4f4:	0f 90       	pop	r0
   1e4f6:	1f 90       	pop	r1
   1e4f8:	18 95       	reti

0001e4fa <__vector_36>:
   1e4fa:	1f 92       	push	r1
   1e4fc:	0f 92       	push	r0
   1e4fe:	0f b6       	in	r0, 0x3f	; 63
   1e500:	0f 92       	push	r0
   1e502:	11 24       	eor	r1, r1
   1e504:	0b b6       	in	r0, 0x3b	; 59
   1e506:	0f 92       	push	r0
   1e508:	2f 93       	push	r18
   1e50a:	8f 93       	push	r24
   1e50c:	9f 93       	push	r25
   1e50e:	ef 93       	push	r30
   1e510:	ff 93       	push	r31
   1e512:	20 91 ce 00 	lds	r18, 0x00CE	; 0x8000ce <__TEXT_REGION_LENGTH__+0x7e00ce>
   1e516:	80 91 03 02 	lds	r24, 0x0203	; 0x800203 <rx1_head>
   1e51a:	8f 5f       	subi	r24, 0xFF	; 255
   1e51c:	90 91 02 02 	lds	r25, 0x0202	; 0x800202 <rx1_tail>
   1e520:	89 17       	cp	r24, r25
   1e522:	41 f0       	breq	.+16     	; 0x1e534 <__vector_36+0x3a>
   1e524:	e0 91 03 02 	lds	r30, 0x0203	; 0x800203 <rx1_head>
   1e528:	f0 e0       	ldi	r31, 0x00	; 0
   1e52a:	ec 5f       	subi	r30, 0xFC	; 252
   1e52c:	fc 4f       	sbci	r31, 0xFC	; 252
   1e52e:	20 83       	st	Z, r18
   1e530:	80 93 03 02 	sts	0x0203, r24	; 0x800203 <rx1_head>
   1e534:	ff 91       	pop	r31
   1e536:	ef 91       	pop	r30
   1e538:	9f 91       	pop	r25
   1e53a:	8f 91       	pop	r24
   1e53c:	2f 91       	pop	r18
   1e53e:	0f 90       	pop	r0
   1e540:	0b be       	out	0x3b, r0	; 59
   1e542:	0f 90       	pop	r0
   1e544:	0f be       	out	0x3f, r0	; 63
   1e546:	0f 90       	pop	r0
   1e548:	1f 90       	pop	r1
   1e54a:	18 95       	reti

0001e54c <__vector_37>:
   1e54c:	1f 92       	push	r1
   1e54e:	0f 92       	push	r0
   1e550:	0f b6       	in	r0, 0x3f	; 63
   1e552:	0f 92       	push	r0
   1e554:	11 24       	eor	r1, r1
   1e556:	0b b6       	in	r0, 0x3b	; 59
   1e558:	0f 92       	push	r0
   1e55a:	8f 93       	push	r24
   1e55c:	9f 93       	push	r25
   1e55e:	ef 93       	push	r30
   1e560:	ff 93       	push	r31
   1e562:	90 91 01 02 	lds	r25, 0x0201	; 0x800201 <tx1_head>
   1e566:	80 91 00 02 	lds	r24, 0x0200	; 0x800200 <__DATA_REGION_ORIGIN__>
   1e56a:	98 13       	cpse	r25, r24
   1e56c:	06 c0       	rjmp	.+12     	; 0x1e57a <__vector_37+0x2e>
   1e56e:	e9 ec       	ldi	r30, 0xC9	; 201
   1e570:	f0 e0       	ldi	r31, 0x00	; 0
   1e572:	80 81       	ld	r24, Z
   1e574:	8f 7d       	andi	r24, 0xDF	; 223
   1e576:	80 83       	st	Z, r24
   1e578:	0d c0       	rjmp	.+26     	; 0x1e594 <__vector_37+0x48>
   1e57a:	e0 91 00 02 	lds	r30, 0x0200	; 0x800200 <__DATA_REGION_ORIGIN__>
   1e57e:	f0 e0       	ldi	r31, 0x00	; 0
   1e580:	ec 5f       	subi	r30, 0xFC	; 252
   1e582:	fd 4f       	sbci	r31, 0xFD	; 253
   1e584:	80 81       	ld	r24, Z
   1e586:	80 93 ce 00 	sts	0x00CE, r24	; 0x8000ce <__TEXT_REGION_LENGTH__+0x7e00ce>
   1e58a:	80 91 00 02 	lds	r24, 0x0200	; 0x800200 <__DATA_REGION_ORIGIN__>
   1e58e:	8f 5f       	subi	r24, 0xFF	; 255
   1e590:	80 93 00 02 	sts	0x0200, r24	; 0x800200 <__DATA_REGION_ORIGIN__>
   1e594:	ff 91       	pop	r31
   1e596:	ef 91       	pop	r30
   1e598:	9f 91       	pop	r25
   1e59a:	8f 91       	pop	r24
   1e59c:	0f 90       	pop	r0
   1e59e:	0b be       	out	0x3b, r0	; 59
   1e5a0:	0f 90       	pop	r0
   1e5a2:	0f be       	out	0x3f, r0	; 63
   1e5a4:	0f 90       	pop	r0
   1e5a6:	1f 90       	pop	r1
   1e5a8:	18 95       	reti

0001e5aa <UART0_init>:
   1e5aa:	10 92 c5 00 	sts	0x00C5, r1	; 0x8000c5 <__TEXT_REGION_LENGTH__+0x7e00c5>
   1e5ae:	83 e3       	ldi	r24, 0x33	; 51
   1e5b0:	80 93 c4 00 	sts	0x00C4, r24	; 0x8000c4 <__TEXT_REGION_LENGTH__+0x7e00c4>
   1e5b4:	88 e9       	ldi	r24, 0x98	; 152
   1e5b6:	80 93 c1 00 	sts	0x00C1, r24	; 0x8000c1 <__TEXT_REGION_LENGTH__+0x7e00c1>
   1e5ba:	86 e0       	ldi	r24, 0x06	; 6
   1e5bc:	80 93 c2 00 	sts	0x00C2, r24	; 0x8000c2 <__TEXT_REGION_LENGTH__+0x7e00c2>
   1e5c0:	08 95       	ret

0001e5c2 <UART1_init>:
   1e5c2:	10 92 cd 00 	sts	0x00CD, r1	; 0x8000cd <__TEXT_REGION_LENGTH__+0x7e00cd>
   1e5c6:	83 e3       	ldi	r24, 0x33	; 51
   1e5c8:	80 93 cc 00 	sts	0x00CC, r24	; 0x8000cc <__TEXT_REGION_LENGTH__+0x7e00cc>
   1e5cc:	88 e9       	ldi	r24, 0x98	; 152
   1e5ce:	80 93 c9 00 	sts	0x00C9, r24	; 0x8000c9 <__TEXT_REGION_LENGTH__+0x7e00c9>
   1e5d2:	86 e0       	ldi	r24, 0x06	; 6
   1e5d4:	80 93 ca 00 	sts	0x00CA, r24	; 0x8000ca <__TEXT_REGION_LENGTH__+0x7e00ca>
   1e5d8:	08 95       	ret

0001e5da <USART1_Transmit>:
   1e5da:	20 91 01 02 	lds	r18, 0x0201	; 0x800201 <tx1_head>
   1e5de:	2f 5f       	subi	r18, 0xFF	; 255
   1e5e0:	90 91 00 02 	lds	r25, 0x0200	; 0x800200 <__DATA_REGION_ORIGIN__>
   1e5e4:	29 17       	cp	r18, r25
   1e5e6:	e1 f3       	breq	.-8      	; 0x1e5e0 <USART1_Transmit+0x6>
   1e5e8:	e0 91 01 02 	lds	r30, 0x0201	; 0x800201 <tx1_head>
   1e5ec:	f0 e0       	ldi	r31, 0x00	; 0
   1e5ee:	ec 5f       	subi	r30, 0xFC	; 252
   1e5f0:	fd 4f       	sbci	r31, 0xFD	; 253
   1e5f2:	80 83       	st	Z, r24
   1e5f4:	20 93 01 02 	sts	0x0201, r18	; 0x800201 <tx1_head>
   1e5f8:	e9 ec       	ldi	r30, 0xC9	; 201
   1e5fa:	f0 e0       	ldi	r31, 0x00	; 0
   1e5fc:	80 81       	ld	r24, Z
   1e5fe:	80 62       	ori	r24, 0x20	; 32
   1e600:	80 83       	st	Z, r24
   1e602:	08 95       	ret

0001e604 <USART1_Receive>:
   1e604:	90 91 03 02 	lds	r25, 0x0203	; 0x800203 <rx1_head>
   1e608:	80 91 02 02 	lds	r24, 0x0202	; 0x800202 <rx1_tail>
   1e60c:	98 17       	cp	r25, r24
   1e60e:	d1 f3       	breq	.-12     	; 0x1e604 <USART1_Receive>
   1e610:	e0 91 02 02 	lds	r30, 0x0202	; 0x800202 <rx1_tail>
   1e614:	f0 e0       	ldi	r31, 0x00	; 0
   1e616:	ec 5f       	subi	r30, 0xFC	; 252
   1e618:	fc 4f       	sbci	r31, 0xFC	; 252
   1e61a:	80 81       	ld	r24, Z
   1e61c:	90 91 02 02 	lds	r25, 0x0202	; 0x800202 <rx1_tail>
   1e620:	9f 5f       	subi	r25, 0xFF	; 255
   1e622:	90 93 02 02 	sts	0x0202, r25	; 0x800202 <rx1_tail>
   1e626:	08 95       	ret

0001e628 <USART1_Available>:
   1e628:	20 91 03 02 	lds	r18, 0x0203	; 0x800203 <rx1_head>
   1e62c:	90 91 02 02 	lds	r25, 0x0202	; 0x800202 <rx1_tail>
   1e630:	81 e0       	ldi	r24, 0x01	; 1
   1e632:	29 13       	cpse	r18, r25
   1e634:	01 c0       	rjmp	.+2      	; 0x1e638 <USART1_Available+0x10>
   1e636:	80 e0       	ldi	r24, 0x00	; 0
   1e638:	90 e0       	ldi	r25, 0x00	; 0
   1e63a:	08 95       	ret

0001e63c <USART1_RxFlush>:


// tail└╗ headĘ╬ Ė┬├ń ┼źĖ” ║¾ ╗¾┼┬Ę╬
void USART1_RxFlush(void)
{
    uint8_t sreg = SREG;
   1e63c:	8f b7       	in	r24, 0x3f	; 63
    cli();
   1e63e:	f8 94       	cli
    rx1_tail = rx1_head;     // RX ┼ź ║±┐ņ▒Ō
   1e640:	90 91 03 02 	lds	r25, 0x0203	; 0x800203 <rx1_head>
   1e644:	90 93 02 02 	sts	0x0202, r25	; 0x800202 <rx1_tail>
    SREG = sreg;
   1e648:	8f bf       	out	0x3f, r24	; 63
   1e64a:	08 95       	ret

0001e64c <USART1_FlushTx>:
}


void USART1_FlushTx(void)
{
	while(tx1_head != tx1_tail);        // TX ┼ź░Ī ║¶ Č¦▒Ņ┴÷
   1e64c:	90 91 01 02 	lds	r25, 0x0201	; 0x800201 <tx1_head>
   1e650:	80 91 00 02 	lds	r24, 0x0200	; 0x800200 <__DATA_REGION_ORIGIN__>
   1e654:	98 13       	cpse	r25, r24
   1e656:	fa cf       	rjmp	.-12     	; 0x1e64c <USART1_FlushTx>
	while(!(UCSR1A & (1 << TXC1)));     // ĖČ┴÷ĖĘ ╣┘└╠Ų« shift ┐ŽĘß
   1e658:	80 91 c8 00 	lds	r24, 0x00C8	; 0x8000c8 <__TEXT_REGION_LENGTH__+0x7e00c8>
   1e65c:	86 ff       	sbrs	r24, 6
   1e65e:	fc cf       	rjmp	.-8      	; 0x1e658 <USART1_FlushTx+0xc>
   1e660:	08 95       	ret

0001e662 <_exit>:
   1e662:	f8 94       	cli

0001e664 <__stop_program>:
   1e664:	ff cf       	rjmp	.-2      	; 0x1e664 <__stop_program>
